target datalayout = "e-m:e-p270:32:32-p271:32:32-p272:64:64-i64:64-i128:128-f80:128-n8:16:32:64-S128"
target triple = "x86_64-pc-linux-gnu"

%struct.free_envelope_list = type { ptr, ptr }
%struct.envelope = type { i32, ptr, ptr, ptr, ptr, i64, ptr, i32, %struct.tMPI_Atomic, i32, ptr, ptr, i32, ptr, ptr, ptr, ptr }
%struct.tMPI_Atomic = type { i32, [60 x i8] }
%struct.send_envelope_list = type { ptr, %struct.tMPI_Atomic_ptr, %struct.tMPI_Atomic_ptr, ptr, ptr, i64 }
%struct.tMPI_Atomic_ptr = type { ptr, [56 x i8] }
%struct.recv_envelope_list = type { ptr, %struct.envelope }
%struct.req_list = type { ptr, ptr }
%struct.tmpi_thread = type { ptr, %struct.recv_envelope_list, ptr, %struct.free_envelope_list, %struct.tMPI_Atomic, %struct.tMPI_Event_t, %struct.req_list, ptr, ptr, ptr, ptr, i32, ptr }
%struct.tMPI_Event_t = type { %struct.tMPI_Atomic, i32 }
%struct.tmpi_datatype_ = type { i64, ptr, i32, ptr, i32 }

@TMPI_COMM_WORLD = external global ptr, align 8
@threads = external global ptr, align 8

; Function Attrs: inlinehint mustprogress nounwind uwtable
define internal noundef i32 @_ZL21tMPI_Atomic_fetch_addP11tMPI_Atomici(ptr noundef %0, i32 noundef %1) #5 {
  %3 = alloca ptr, align 8
  %4 = alloca i32, align 4
  store ptr %0, ptr %3, align 8, !tbaa !102
  store volatile i32 %1, ptr %4, align 4, !tbaa !8
  %5 = load ptr, ptr %3, align 8, !tbaa !102
  %6 = getelementptr inbounds nuw %struct.tMPI_Atomic, ptr %5, i32 0, i32 0
  %7 = load volatile i32, ptr %4, align 4, !tbaa !8
  %8 = atomicrmw add ptr %6, i32 %7 seq_cst, align 4
  ret i32 %8
}

; Function Attrs: inlinehint mustprogress nounwind uwtable
define internal noundef i32 @_ZL19tMPI_Atomic_ptr_casP15tMPI_Atomic_ptrPvS1_(ptr noundef %0, ptr noundef %1, ptr noundef %2) #5 {
  %4 = alloca ptr, align 8
  %5 = alloca ptr, align 8
  %6 = alloca ptr, align 8
  store ptr %0, ptr %4, align 8, !tbaa !104
  store ptr %1, ptr %5, align 8, !tbaa !73
  store ptr %2, ptr %6, align 8, !tbaa !73
  %7 = load ptr, ptr %4, align 8, !tbaa !104
  %8 = getelementptr inbounds nuw %struct.tMPI_Atomic_ptr, ptr %7, i32 0, i32 0
  %9 = load ptr, ptr %5, align 8, !tbaa !73
  %10 = ptrtoint ptr %9 to i64
  %11 = load ptr, ptr %6, align 8, !tbaa !73
  %12 = ptrtoint ptr %11 to i64
  %13 = cmpxchg ptr %8, i64 %10, i64 %12 seq_cst seq_cst, align 8
  %14 = extractvalue { i64, i1 } %13, 1
  %15 = zext i1 %14 to i32
  ret i32 %15
}

; Function Attrs: mustprogress uwtable
define internal noundef ptr @_ZL28tMPI_Send_env_list_fetch_newP18send_envelope_list(ptr noundef %0) #0 {
  %2 = alloca ptr, align 8
  %3 = alloca ptr, align 8
  %4 = alloca ptr, align 8
  %5 = alloca ptr, align 8
  %6 = alloca i32, align 4
  store ptr %0, ptr %3, align 8, !tbaa !27
  call void @llvm.lifetime.start.p0(i64 8, ptr %4) #7
  br label %7

7:                                                ; preds = %54, %1
  %8 = load ptr, ptr %3, align 8, !tbaa !27
  %9 = getelementptr inbounds nuw %struct.send_envelope_list, ptr %8, i32 0, i32 2
  %10 = getelementptr inbounds nuw %struct.tMPI_Atomic_ptr, ptr %9, i32 0, i32 0
  %11 = load ptr, ptr %10, align 8, !tbaa !35
  store ptr %11, ptr %4, align 8, !tbaa !53
  %12 = icmp ne ptr %11, null
  br i1 %12, label %13, label %44

13:                                               ; preds = %7
  br label %14

14:                                               ; preds = %21, %13
  %15 = load ptr, ptr %3, align 8, !tbaa !27
  %16 = getelementptr inbounds nuw %struct.send_envelope_list, ptr %15, i32 0, i32 2
  %17 = load ptr, ptr %4, align 8, !tbaa !53
  %18 = call noundef i32 @_ZL19tMPI_Atomic_ptr_casP15tMPI_Atomic_ptrPvS1_(ptr noundef %16, ptr noundef %17, ptr noundef null)
  %19 = icmp ne i32 %18, 0
  %20 = xor i1 %19, true
  br i1 %20, label %21, label %26

21:                                               ; preds = %14
  %22 = load ptr, ptr %3, align 8, !tbaa !27
  %23 = getelementptr inbounds nuw %struct.send_envelope_list, ptr %22, i32 0, i32 2
  %24 = getelementptr inbounds nuw %struct.tMPI_Atomic_ptr, ptr %23, i32 0, i32 0
  %25 = load ptr, ptr %24, align 8, !tbaa !35
  store ptr %25, ptr %4, align 8, !tbaa !53
  br label %14, !llvm.loop !111

26:                                               ; preds = %14
  br label %27

27:                                               ; preds = %30, %26
  %28 = load ptr, ptr %4, align 8, !tbaa !53
  %29 = icmp ne ptr %28, null
  br i1 %29, label %30, label %43

30:                                               ; preds = %27
  call void @llvm.lifetime.start.p0(i64 8, ptr %5) #7
  %31 = load ptr, ptr %4, align 8, !tbaa !53
  %32 = getelementptr inbounds nuw %struct.envelope, ptr %31, i32 0, i32 11
  %33 = load ptr, ptr %32, align 8, !tbaa !14
  store ptr %33, ptr %5, align 8, !tbaa !53
  %34 = load ptr, ptr %3, align 8, !tbaa !27
  %35 = getelementptr inbounds nuw %struct.send_envelope_list, ptr %34, i32 0, i32 0
  %36 = load ptr, ptr %35, align 8, !tbaa !36
  %37 = load ptr, ptr %4, align 8, !tbaa !53
  %38 = getelementptr inbounds nuw %struct.envelope, ptr %37, i32 0, i32 11
  store ptr %36, ptr %38, align 8, !tbaa !14
  %39 = load ptr, ptr %4, align 8, !tbaa !53
  %40 = load ptr, ptr %3, align 8, !tbaa !27
  %41 = getelementptr inbounds nuw %struct.send_envelope_list, ptr %40, i32 0, i32 0
  store ptr %39, ptr %41, align 8, !tbaa !36
  %42 = load ptr, ptr %5, align 8, !tbaa !53
  store ptr %42, ptr %4, align 8, !tbaa !53
  call void @llvm.lifetime.end.p0(i64 8, ptr %5) #7
  br label %27, !llvm.loop !112

43:                                               ; preds = %27
  br label %44

44:                                               ; preds = %43, %7
  %45 = load ptr, ptr %3, align 8, !tbaa !27
  %46 = getelementptr inbounds nuw %struct.send_envelope_list, ptr %45, i32 0, i32 0
  %47 = load ptr, ptr %46, align 8, !tbaa !36
  store ptr %47, ptr %4, align 8, !tbaa !53
  %48 = load ptr, ptr %4, align 8, !tbaa !53
  %49 = icmp ne ptr %48, null
  br i1 %49, label %53, label %50

50:                                               ; preds = %44
  %51 = load ptr, ptr @TMPI_COMM_WORLD, align 8, !tbaa !52
  %52 = call noundef i32 @_Z10tMPI_ErrorP10tmpi_comm_i(ptr noundef %51, i32 noundef 20)
  store ptr null, ptr %2, align 8
  store i32 1, ptr %6, align 4
  br label %74

53:                                               ; preds = %44
  br label %54

54:                                               ; preds = %53
  %55 = load ptr, ptr %4, align 8, !tbaa !53
  %56 = icmp ne ptr %55, null
  %57 = xor i1 %56, true
  br i1 %57, label %7, label %58, !llvm.loop !113

58:                                               ; preds = %54
  %59 = load ptr, ptr %4, align 8, !tbaa !53
  %60 = getelementptr inbounds nuw %struct.envelope, ptr %59, i32 0, i32 11
  %61 = load ptr, ptr %60, align 8, !tbaa !14
  %62 = load ptr, ptr %3, align 8, !tbaa !27
  %63 = getelementptr inbounds nuw %struct.send_envelope_list, ptr %62, i32 0, i32 0
  store ptr %61, ptr %63, align 8, !tbaa !36
  %64 = load ptr, ptr %4, align 8, !tbaa !53
  %65 = getelementptr inbounds nuw %struct.envelope, ptr %64, i32 0, i32 11
  store ptr null, ptr %65, align 8, !tbaa !14
  %66 = load ptr, ptr %4, align 8, !tbaa !53
  %67 = getelementptr inbounds nuw %struct.envelope, ptr %66, i32 0, i32 10
  store ptr null, ptr %67, align 8, !tbaa !32
  %68 = load ptr, ptr %3, align 8, !tbaa !27
  %69 = load ptr, ptr %4, align 8, !tbaa !53
  %70 = getelementptr inbounds nuw %struct.envelope, ptr %69, i32 0, i32 16
  store ptr %68, ptr %70, align 8, !tbaa !24
  %71 = load ptr, ptr %4, align 8, !tbaa !53
  %72 = getelementptr inbounds nuw %struct.envelope, ptr %71, i32 0, i32 15
  store ptr null, ptr %72, align 8, !tbaa !23
  %73 = load ptr, ptr %4, align 8, !tbaa !53
  store ptr %73, ptr %2, align 8
  store i32 1, ptr %6, align 4
  br label %74

74:                                               ; preds = %58, %50
  call void @llvm.lifetime.end.p0(i64 8, ptr %4) #7
  %75 = load ptr, ptr %2, align 8
  ret ptr %75
}

; Function Attrs: mustprogress uwtable
define internal void @_ZL26tMPI_Send_env_list_add_newP11tmpi_threadP18send_envelope_listP8envelope(ptr noundef %0, ptr noundef %1, ptr noundef %2) #0 {
  %4 = alloca ptr, align 8
  %5 = alloca ptr, align 8
  %6 = alloca ptr, align 8
  %7 = alloca ptr, align 8
  store ptr %0, ptr %4, align 8, !tbaa !72
  store ptr %1, ptr %5, align 8, !tbaa !27
  store ptr %2, ptr %6, align 8, !tbaa !53
  call void @llvm.lifetime.start.p0(i64 8, ptr %7) #7
  %8 = load ptr, ptr %6, align 8, !tbaa !53
  %9 = getelementptr inbounds nuw %struct.envelope, ptr %8, i32 0, i32 10
  store ptr null, ptr %9, align 8, !tbaa !32
  br label %10

10:                                               ; preds = %18, %3
  %11 = load ptr, ptr %5, align 8, !tbaa !27
  %12 = getelementptr inbounds nuw %struct.send_envelope_list, ptr %11, i32 0, i32 1
  %13 = getelementptr inbounds nuw %struct.tMPI_Atomic_ptr, ptr %12, i32 0, i32 0
  %14 = load ptr, ptr %13, align 8, !tbaa !34
  store ptr %14, ptr %7, align 8, !tbaa !53
  %15 = load ptr, ptr %7, align 8, !tbaa !53
  %16 = load ptr, ptr %6, align 8, !tbaa !53
  %17 = getelementptr inbounds nuw %struct.envelope, ptr %16, i32 0, i32 11
  store ptr %15, ptr %17, align 8, !tbaa !14
  br label %18

18:                                               ; preds = %10
  %19 = load ptr, ptr %5, align 8, !tbaa !27
  %20 = getelementptr inbounds nuw %struct.send_envelope_list, ptr %19, i32 0, i32 1
  %21 = load ptr, ptr %7, align 8, !tbaa !53
  %22 = load ptr, ptr %6, align 8, !tbaa !53
  %23 = call noundef i32 @_ZL19tMPI_Atomic_ptr_casP15tMPI_Atomic_ptrPvS1_(ptr noundef %20, ptr noundef %21, ptr noundef %22)
  %24 = icmp ne i32 %23, 0
  %25 = xor i1 %24, true
  br i1 %25, label %10, label %26, !llvm.loop !95

26:                                               ; preds = %18
  fence seq_cst
  %27 = load ptr, ptr %6, align 8, !tbaa !53
  %28 = getelementptr inbounds nuw %struct.envelope, ptr %27, i32 0, i32 3
  %29 = load ptr, ptr %28, align 8, !tbaa !84
  %30 = getelementptr inbounds nuw %struct.tmpi_thread, ptr %29, i32 0, i32 5
  %31 = getelementptr inbounds nuw %struct.tMPI_Event_t, ptr %30, i32 0, i32 0
  %32 = call noundef i32 @_ZL21tMPI_Atomic_fetch_addP11tMPI_Atomici(ptr noundef %31, i32 noundef 1)
  call void @llvm.lifetime.end.p0(i64 8, ptr %7) #7
  ret void
}

; Function Attrs: mustprogress uwtable
define internal noundef ptr @_ZL23tMPI_Prep_send_envelopeP18send_envelope_listP10tmpi_comm_P11tmpi_threadS4_PviP14tmpi_datatype_ii(ptr noundef %0, ptr noundef %1, ptr noundef %2, ptr noundef %3, ptr noundef %4, i32 noundef %5, ptr noundef %6, i32 noundef %7, i32 noundef %8) #0 {
  %10 = alloca ptr, align 8
  %11 = alloca ptr, align 8
  %12 = alloca ptr, align 8
  %13 = alloca ptr, align 8
  %14 = alloca ptr, align 8
  %15 = alloca ptr, align 8
  %16 = alloca i32, align 4
  %17 = alloca ptr, align 8
  %18 = alloca i32, align 4
  %19 = alloca i32, align 4
  %20 = alloca ptr, align 8
  %21 = alloca i32, align 4
  store ptr %0, ptr %11, align 8, !tbaa !27
  store ptr %1, ptr %12, align 8, !tbaa !52
  store ptr %2, ptr %13, align 8, !tbaa !72
  store ptr %3, ptr %14, align 8, !tbaa !72
  store ptr %4, ptr %15, align 8, !tbaa !73
  store i32 %5, ptr %16, align 4, !tbaa !8
  store ptr %6, ptr %17, align 8, !tbaa !74
  store i32 %7, ptr %18, align 4, !tbaa !8
  store i32 %8, ptr %19, align 4, !tbaa !8
  call void @llvm.lifetime.start.p0(i64 8, ptr %20) #7
  %22 = load ptr, ptr %11, align 8, !tbaa !27
  %23 = call noundef ptr @_ZL28tMPI_Send_env_list_fetch_newP18send_envelope_list(ptr noundef %22)
  store ptr %23, ptr %20, align 8, !tbaa !53
  %24 = load ptr, ptr %20, align 8, !tbaa !53
  %25 = icmp eq ptr %24, null
  br i1 %25, label %26, label %27

26:                                               ; preds = %9
  store ptr null, ptr %10, align 8
  store i32 1, ptr %21, align 4
  br label %75

27:                                               ; preds = %9
  %28 = load i32, ptr %18, align 4, !tbaa !8
  %29 = load ptr, ptr %20, align 8, !tbaa !53
  %30 = getelementptr inbounds nuw %struct.envelope, ptr %29, i32 0, i32 0
  store i32 %28, ptr %30, align 8, !tbaa !82
  %31 = load i32, ptr %19, align 4, !tbaa !8
  %32 = load ptr, ptr %20, align 8, !tbaa !53
  %33 = getelementptr inbounds nuw %struct.envelope, ptr %32, i32 0, i32 7
  store i32 %31, ptr %33, align 8, !tbaa !83
  %34 = load ptr, ptr %12, align 8, !tbaa !52
  %35 = load ptr, ptr %20, align 8, !tbaa !53
  %36 = getelementptr inbounds nuw %struct.envelope, ptr %35, i32 0, i32 1
  store ptr %34, ptr %36, align 8, !tbaa !58
  %37 = load ptr, ptr %13, align 8, !tbaa !72
  %38 = load ptr, ptr %20, align 8, !tbaa !53
  %39 = getelementptr inbounds nuw %struct.envelope, ptr %38, i32 0, i32 2
  store ptr %37, ptr %39, align 8, !tbaa !56
  %40 = load ptr, ptr %14, align 8, !tbaa !72
  %41 = load ptr, ptr %20, align 8, !tbaa !53
  %42 = getelementptr inbounds nuw %struct.envelope, ptr %41, i32 0, i32 3
  store ptr %40, ptr %42, align 8, !tbaa !84
  %43 = load ptr, ptr %15, align 8, !tbaa !73
  %44 = load ptr, ptr %20, align 8, !tbaa !53
  %45 = getelementptr inbounds nuw %struct.envelope, ptr %44, i32 0, i32 4
  store ptr %43, ptr %45, align 8, !tbaa !85
  %46 = load i32, ptr %16, align 4, !tbaa !8
  %47 = sext i32 %46 to i64
  %48 = load ptr, ptr %17, align 8, !tbaa !74
  %49 = getelementptr inbounds nuw %struct.tmpi_datatype_, ptr %48, i32 0, i32 0
  %50 = load i64, ptr %49, align 8, !tbaa !86
  %51 = mul i64 %47, %50
  %52 = load ptr, ptr %20, align 8, !tbaa !53
  %53 = getelementptr inbounds nuw %struct.envelope, ptr %52, i32 0, i32 5
  store i64 %51, ptr %53, align 8, !tbaa !89
  %54 = load ptr, ptr %17, align 8, !tbaa !74
  %55 = load ptr, ptr %20, align 8, !tbaa !53
  %56 = getelementptr inbounds nuw %struct.envelope, ptr %55, i32 0, i32 6
  store ptr %54, ptr %56, align 8, !tbaa !90
  %57 = load ptr, ptr %20, align 8, !tbaa !53
  %58 = getelementptr inbounds nuw %struct.envelope, ptr %57, i32 0, i32 12
  store i32 1, ptr %58, align 8, !tbaa !91
  %59 = load ptr, ptr %20, align 8, !tbaa !53
  %60 = getelementptr inbounds nuw %struct.envelope, ptr %59, i32 0, i32 15
  store ptr null, ptr %60, align 8, !tbaa !23
  %61 = load ptr, ptr %20, align 8, !tbaa !53
  %62 = getelementptr inbounds nuw %struct.envelope, ptr %61, i32 0, i32 8
  %63 = getelementptr inbounds nuw %struct.tMPI_Atomic, ptr %62, i32 0, i32 0
  store i32 0, ptr %63, align 4, !tbaa !92
  %64 = load ptr, ptr %20, align 8, !tbaa !53
  %65 = getelementptr inbounds nuw %struct.envelope, ptr %64, i32 0, i32 9
  store i32 0, ptr %65, align 4, !tbaa !93
  %66 = load i32, ptr %16, align 4, !tbaa !8
  %67 = icmp slt i32 %66, 0
  br i1 %67, label %68, label %73

68:                                               ; preds = %27
  %69 = load ptr, ptr %12, align 8, !tbaa !52
  %70 = call noundef i32 @_Z10tMPI_ErrorP10tmpi_comm_i(ptr noundef %69, i32 noundef 13)
  %71 = load ptr, ptr %20, align 8, !tbaa !53
  %72 = getelementptr inbounds nuw %struct.envelope, ptr %71, i32 0, i32 9
  store i32 13, ptr %72, align 4, !tbaa !93
  br label %73

73:                                               ; preds = %68, %27
  %74 = load ptr, ptr %20, align 8, !tbaa !53
  store ptr %74, ptr %10, align 8
  store i32 1, ptr %21, align 4
  br label %75

75:                                               ; preds = %73, %26
  call void @llvm.lifetime.end.p0(i64 8, ptr %20) #7
  %76 = load ptr, ptr %10, align 8
  ret ptr %76
}

; Function Attrs: mustprogress uwtable
define noundef ptr @_Z14tMPI_Post_sendP11tmpi_threadP10tmpi_comm_S0_PviP14tmpi_datatype_ii(ptr noundef %0, ptr noundef %1, ptr noundef %2, ptr noundef %3, i32 noundef %4, ptr noundef %5, i32 noundef %6, i32 noundef %7) #0 {
  %9 = alloca ptr, align 8
  %10 = alloca ptr, align 8
  %11 = alloca ptr, align 8
  %12 = alloca ptr, align 8
  %13 = alloca ptr, align 8
  %14 = alloca i32, align 4
  %15 = alloca ptr, align 8
  %16 = alloca i32, align 4
  %17 = alloca i32, align 4
  %18 = alloca ptr, align 8
  %19 = alloca ptr, align 8
  %20 = alloca i32, align 4
  %21 = alloca ptr, align 8
  %22 = alloca i32, align 4
  store ptr %0, ptr %10, align 8, !tbaa !72
  store ptr %1, ptr %11, align 8, !tbaa !52
  store ptr %2, ptr %12, align 8, !tbaa !72
  store ptr %3, ptr %13, align 8, !tbaa !73
  store i32 %4, ptr %14, align 4, !tbaa !8
  store ptr %5, ptr %15, align 8, !tbaa !74
  store i32 %6, ptr %16, align 4, !tbaa !8
  store i32 %7, ptr %17, align 4, !tbaa !8
  call void @llvm.lifetime.start.p0(i64 8, ptr %18) #7
  %23 = load ptr, ptr %10, align 8, !tbaa !72
  store ptr %23, ptr %18, align 8, !tbaa !72
  call void @llvm.lifetime.start.p0(i64 8, ptr %19) #7
  call void @llvm.lifetime.start.p0(i64 4, ptr %20) #7
  %24 = load ptr, ptr %18, align 8, !tbaa !72
  %25 = load ptr, ptr @threads, align 8, !tbaa !72
  %26 = ptrtoint ptr %24 to i64
  %27 = ptrtoint ptr %25 to i64
  %28 = sub i64 %26, %27
  %29 = sdiv exact i64 %28, 424
  %30 = trunc i64 %29 to i32
  store i32 %30, ptr %20, align 4, !tbaa !8
  call void @llvm.lifetime.start.p0(i64 8, ptr %21) #7
  %31 = load ptr, ptr %12, align 8, !tbaa !72
  %32 = getelementptr inbounds nuw %struct.tmpi_thread, ptr %31, i32 0, i32 2
  %33 = load ptr, ptr %32, align 8, !tbaa !75
  %34 = load i32, ptr %20, align 4, !tbaa !8
  %35 = sext i32 %34 to i64
  %36 = getelementptr inbounds %struct.send_envelope_list, ptr %33, i64 %35
  store ptr %36, ptr %21, align 8, !tbaa !27
  %37 = load ptr, ptr %21, align 8, !tbaa !27
  %38 = load ptr, ptr %11, align 8, !tbaa !52
  %39 = load ptr, ptr %18, align 8, !tbaa !72
  %40 = load ptr, ptr %12, align 8, !tbaa !72
  %41 = load ptr, ptr %13, align 8, !tbaa !73
  %42 = load i32, ptr %14, align 4, !tbaa !8
  %43 = load ptr, ptr %15, align 8, !tbaa !74
  %44 = load i32, ptr %16, align 4, !tbaa !8
  %45 = load i32, ptr %17, align 4, !tbaa !8
  %46 = call noundef ptr @_ZL23tMPI_Prep_send_envelopeP18send_envelope_listP10tmpi_comm_P11tmpi_threadS4_PviP14tmpi_datatype_ii(ptr noundef %37, ptr noundef %38, ptr noundef %39, ptr noundef %40, ptr noundef %41, i32 noundef %42, ptr noundef %43, i32 noundef %44, i32 noundef %45)
  store ptr %46, ptr %19, align 8, !tbaa !53
  %47 = load ptr, ptr %19, align 8, !tbaa !53
  %48 = icmp eq ptr %47, null
  br i1 %48, label %49, label %50

49:                                               ; preds = %8
  store ptr null, ptr %9, align 8
  store i32 1, ptr %22, align 4
  br label %60

50:                                               ; preds = %8
  %51 = load ptr, ptr %10, align 8, !tbaa !72
  %52 = load ptr, ptr %12, align 8, !tbaa !72
  %53 = getelementptr inbounds nuw %struct.tmpi_thread, ptr %52, i32 0, i32 2
  %54 = load ptr, ptr %53, align 8, !tbaa !75
  %55 = load i32, ptr %20, align 4, !tbaa !8
  %56 = sext i32 %55 to i64
  %57 = getelementptr inbounds %struct.send_envelope_list, ptr %54, i64 %56
  %58 = load ptr, ptr %19, align 8, !tbaa !53
  call void @_ZL26tMPI_Send_env_list_add_newP11tmpi_threadP18send_envelope_listP8envelope(ptr noundef %51, ptr noundef %57, ptr noundef %58)
  %59 = load ptr, ptr %19, align 8, !tbaa !53
  store ptr %59, ptr %9, align 8
  store i32 1, ptr %22, align 4
  br label %60

60:                                               ; preds = %50, %49
  call void @llvm.lifetime.end.p0(i64 8, ptr %21) #7
  call void @llvm.lifetime.end.p0(i64 4, ptr %20) #7
  call void @llvm.lifetime.end.p0(i64 8, ptr %19) #7
  call void @llvm.lifetime.end.p0(i64 8, ptr %18) #7
  %61 = load ptr, ptr %9, align 8
  ret ptr %61
}