; Function Attrs: mustprogress uwtable
define noundef ptr @_Z14tMPI_Post_sendP11tmpi_threadP10tmpi_comm_S0_PviP14tmpi_datatype_ii(ptr noundef %0, ptr noundef %1, ptr noundef %2, ptr noundef %3, i32 noundef %4, ptr noundef %5, i32 noundef %6, i32 noundef %7) local_unnamed_addr #0 {
  %9 = alloca i32, align 4
  %10 = load ptr, ptr @threads, align 8, !tbaa !61
  %11 = ptrtoint ptr %0 to i64
  %12 = ptrtoint ptr %10 to i64
  %13 = sub i64 %11, %12
  %14 = sdiv exact i64 %13, 424
  %15 = getelementptr inbounds nuw i8, ptr %2, i64 200
  %16 = load ptr, ptr %15, align 8, !tbaa !77
  %sext = shl i64 %14, 32
  %17 = ashr exact i64 %sext, 32
  %18 = getelementptr inbounds %struct.send_envelope_list, ptr %16, i64 %17
  %19 = getelementptr inbounds nuw i8, ptr %18, i64 72
  %20 = load ptr, ptr %19, align 8, !tbaa !31
  %.not.i.i = icmp eq ptr %20, null
  br i1 %.not.i.i, label %..loopexit_crit_edge34.i.i, label %.preheader29.i.i

..loopexit_crit_edge34.i.i:                       ; preds = %8
  %.pre.i.i = load ptr, ptr %18, align 8, !tbaa !32
  br label %.loopexit.i.i

.preheader29.i.i:                                 ; preds = %8
  %21 = ptrtoint ptr %20 to i64
  %22 = cmpxchg ptr %19, i64 %21, i64 0 seq_cst seq_cst, align 8
  %23 = extractvalue { i64, i1 } %22, 1
  br i1 %23, label %.preheader.thread.i.i, label %.lr.ph.i.i

.preheader.thread.i.i:                            ; preds = %.preheader29.i.i
  %.pre3538.i.i = load ptr, ptr %18, align 8, !tbaa !32
  br label %.lr.ph32.i.i.preheader

.lr.ph32.i.i.preheader:                           ; preds = %.preheader.i.i, %.preheader.thread.i.i
  %.13133.i.i.ph = phi ptr [ %.pre35.i.i, %.preheader.i.i ], [ %.pre3538.i.i, %.preheader.thread.i.i ]
  %.131.i.i.ph = phi ptr [ %24, %.preheader.i.i ], [ %20, %.preheader.thread.i.i ]
  br label %.lr.ph32.i.i

.preheader.i.i:                                   ; preds = %.lr.ph.i.i
  %.not2730.i.i = icmp eq ptr %24, null
  %.pre35.i.i = load ptr, ptr %18, align 8, !tbaa !32
  br i1 %.not2730.i.i, label %.loopexit.i.i, label %.lr.ph32.i.i.preheader

.lr.ph.i.i:                                       ; preds = %.preheader29.i.i, %.lr.ph.i.i
  %24 = load ptr, ptr %19, align 8, !tbaa !31
  %25 = ptrtoint ptr %24 to i64
  %26 = cmpxchg ptr %19, i64 %25, i64 0 seq_cst seq_cst, align 8
  %27 = extractvalue { i64, i1 } %26, 1
  br i1 %27, label %.preheader.i.i, label %.lr.ph.i.i, !llvm.loop !83

.lr.ph32.i.i:                                     ; preds = %.lr.ph32.i.i.preheader, %.lr.ph32.i.i
  %.13133.i.i = phi ptr [ %.131.i.i, %.lr.ph32.i.i ], [ %.13133.i.i.ph, %.lr.ph32.i.i.preheader ]
  %.131.i.i = phi ptr [ %29, %.lr.ph32.i.i ], [ %.131.i.i.ph, %.lr.ph32.i.i.preheader ]
  %28 = getelementptr inbounds nuw i8, ptr %.131.i.i, i64 136
  %29 = load ptr, ptr %28, align 8, !tbaa !10
  store ptr %.13133.i.i, ptr %28, align 8, !tbaa !10
  %.not27.i.i = icmp eq ptr %29, null
  br i1 %.not27.i.i, label %.loopexit.i, label %.lr.ph32.i.i, !llvm.loop !84

.loopexit.i.i:                                    ; preds = %.preheader.i.i, %..loopexit_crit_edge34.i.i
  %30 = phi ptr [ %.pre.i.i, %..loopexit_crit_edge34.i.i ], [ %.pre35.i.i, %.preheader.i.i ]
  %.not28.i.i = icmp eq ptr %30, null
  br i1 %.not28.i.i, label %_ZL23tMPI_Prep_send_envelopeP18send_envelope_listP10tmpi_comm_P11tmpi_threadS4_PviP14tmpi_datatype_ii.exit, label %.loopexit.i..loopexit_crit_edge.i

.loopexit.i..loopexit_crit_edge.i:                ; preds = %.loopexit.i.i
  %.phi.trans.insert.i = getelementptr inbounds nuw i8, ptr %30, i64 136
  %.pre.i = load ptr, ptr %.phi.trans.insert.i, align 8, !tbaa !10
  br label %.loopexit.i

.loopexit.i:                                      ; preds = %.lr.ph32.i.i, %.loopexit.i..loopexit_crit_edge.i
  %31 = phi ptr [ %.pre.i, %.loopexit.i..loopexit_crit_edge.i ], [ %.13133.i.i, %.lr.ph32.i.i ]
  %32 = phi ptr [ %30, %.loopexit.i..loopexit_crit_edge.i ], [ %.131.i.i, %.lr.ph32.i.i ]
  store ptr %31, ptr %18, align 8, !tbaa !32
  %33 = getelementptr inbounds nuw i8, ptr %32, i64 128
  %34 = getelementptr inbounds nuw i8, ptr %32, i64 176
  tail call void @llvm.memset.p0.i64(ptr noundef nonnull align 8 dereferenceable(16) %33, i8 0, i64 16, i1 false)
  store ptr %18, ptr %34, align 8, !tbaa !27
  %35 = getelementptr inbounds nuw i8, ptr %32, i64 168
  store i32 %6, ptr %32, align 8, !tbaa !62
  %36 = getelementptr inbounds nuw i8, ptr %32, i64 56
  store i32 %7, ptr %36, align 8, !tbaa !63
  %37 = getelementptr inbounds nuw i8, ptr %32, i64 8
  store ptr %1, ptr %37, align 8, !tbaa !49
  %38 = getelementptr inbounds nuw i8, ptr %32, i64 16
  store ptr %0, ptr %38, align 8, !tbaa !47
  %39 = getelementptr inbounds nuw i8, ptr %32, i64 24
  store ptr %2, ptr %39, align 8, !tbaa !64
  %40 = getelementptr inbounds nuw i8, ptr %32, i64 32
  store ptr %3, ptr %40, align 8, !tbaa !65
  %41 = sext i32 %4 to i64
  %42 = load i64, ptr %5, align 8, !tbaa !66
  %43 = mul i64 %42, %41
  %44 = getelementptr inbounds nuw i8, ptr %32, i64 40
  store i64 %43, ptr %44, align 8, !tbaa !70
  %45 = getelementptr inbounds nuw i8, ptr %32, i64 48
  store ptr %5, ptr %45, align 8, !tbaa !71
  %46 = getelementptr inbounds nuw i8, ptr %32, i64 144
  store i32 1, ptr %46, align 8, !tbaa !72
  store ptr null, ptr %35, align 8, !tbaa !28
  %47 = getelementptr inbounds nuw i8, ptr %32, i64 60
  store i32 0, ptr %47, align 4, !tbaa !73
  %48 = getelementptr inbounds nuw i8, ptr %32, i64 124
  store i32 0, ptr %48, align 4, !tbaa !74
  %49 = icmp slt i32 %4, 0
  br i1 %49, label %50, label %54

50:                                               ; preds = %.loopexit.i
  %51 = tail call noundef i32 @_Z10tMPI_ErrorP10tmpi_comm_i(ptr noundef %1, i32 noundef 13)
  store i32 13, ptr %48, align 4, !tbaa !74
  br label %54

_ZL23tMPI_Prep_send_envelopeP18send_envelope_listP10tmpi_comm_P11tmpi_threadS4_PviP14tmpi_datatype_ii.exit: ; preds = %.loopexit.i.i
  %52 = load ptr, ptr @TMPI_COMM_WORLD, align 8, !tbaa !44
  %53 = tail call noundef i32 @_Z10tMPI_ErrorP10tmpi_comm_i(ptr noundef %52, i32 noundef 20)
  br label %67

54:                                               ; preds = %50, %.loopexit.i
  %55 = load ptr, ptr %15, align 8, !tbaa !77
  store ptr null, ptr %33, align 8, !tbaa !26
  %56 = getelementptr inbounds %struct.send_envelope_list, ptr %55, i64 %17, i32 1
  %57 = getelementptr inbounds nuw i8, ptr %32, i64 136
  %58 = ptrtoint ptr %32 to i64
  br label %59

59:                                               ; preds = %59, %54
  %60 = load ptr, ptr %56, align 8, !tbaa !30
  store ptr %60, ptr %57, align 8, !tbaa !10
  %61 = ptrtoint ptr %60 to i64
  %62 = cmpxchg ptr %56, i64 %61, i64 %58 seq_cst seq_cst, align 8
  %63 = extractvalue { i64, i1 } %62, 1
  br i1 %63, label %_ZL26tMPI_Send_env_list_add_newP11tmpi_threadP18send_envelope_listP8envelope.exit, label %59, !llvm.loop !85

_ZL26tMPI_Send_env_list_add_newP11tmpi_threadP18send_envelope_listP8envelope.exit: ; preds = %59
  fence seq_cst
  %64 = load ptr, ptr %39, align 8, !tbaa !64
  %65 = getelementptr inbounds nuw i8, ptr %64, i64 288
  call void @llvm.lifetime.start.p0(i64 4, ptr nonnull %9)
  store volatile i32 1, ptr %9, align 4, !tbaa !75
  %.0..0..0..0..0..0..0..0..i.i = load volatile i32, ptr %9, align 4, !tbaa !75
  %66 = atomicrmw add ptr %65, i32 %.0..0..0..0..0..0..0..0..i.i seq_cst, align 4
  call void @llvm.lifetime.end.p0(i64 4, ptr nonnull %9)
  br label %67

67:                                               ; preds = %_ZL23tMPI_Prep_send_envelopeP18send_envelope_listP10tmpi_comm_P11tmpi_threadS4_PviP14tmpi_datatype_ii.exit, %_ZL26tMPI_Send_env_list_add_newP11tmpi_threadP18send_envelope_listP8envelope.exit
  %.0 = phi ptr [ %32, %_ZL26tMPI_Send_env_list_add_newP11tmpi_threadP18send_envelope_listP8envelope.exit ], [ null, %_ZL23tMPI_Prep_send_envelopeP18send_envelope_listP10tmpi_comm_P11tmpi_threadS4_PviP14tmpi_datatype_ii.exit ]
  ret ptr %.0
}